target datalayout = "e-m:e-p270:32:32-p271:32:32-p272:64:64-i64:64-i128:128-f80:128-n8:16:32:64-S128"
target triple = "x86_64-pc-linux-gnu"

%struct.opcode_description = type { i32, ptr, i32, i32, i32, i32 }
%struct.jv = type { i8, i8, i16, i32, %union.anon }
%union.anon = type { ptr }
%struct.bytecode = type { ptr, i32, i32, i32, %struct.jv, ptr, ptr, i32, ptr, %struct.jv }

@.str = private unnamed_addr constant [13 x i8] c"%*s[params: \00", align 1
@.str.1 = private unnamed_addr constant [1 x i8] zeroinitializer, align 1
@.str.2 = private unnamed_addr constant [7 x i8] c"params\00", align 1
@.str.3 = private unnamed_addr constant [3 x i8] c", \00", align 1
@.str.4 = private unnamed_addr constant [3 x i8] c"%s\00", align 1
@.str.5 = private unnamed_addr constant [3 x i8] c"]\0A\00", align 1
@.str.6 = private unnamed_addr constant [5 x i8] c"name\00", align 1
@.str.7 = private unnamed_addr constant [11 x i8] c"%*s%s:%d:\0A\00", align 1
@invalid_opcode_description = internal constant { i32, [4 x i8], ptr, i32, i32, i32, i32 } { i32 -1, [4 x i8] zeroinitializer, ptr @.str.61, i32 0, i32 0, i32 0, i32 0 }, align 8
@.str.63 = private unnamed_addr constant [4 x i8] c"%*s\00", align 1
@.str.64 = private unnamed_addr constant [2 x i8] c"\0A\00", align 1

; Function Attrs: nounwind uwtable
define dso_local ptr @opcode_describe(i32 noundef %0) #0 {
  %2 = alloca ptr, align 8
  %3 = alloca i32, align 4
  store i32 %0, ptr %3, align 4, !tbaa !4
  %4 = load i32, ptr %3, align 4, !tbaa !4
  %5 = icmp sge i32 %4, 0
  br i1 %5, label %6, label %13

6:                                                ; preds = %1
  %7 = load i32, ptr %3, align 4, !tbaa !4
  %8 = icmp slt i32 %7, 43
  br i1 %8, label %9, label %13

9:                                                ; preds = %6
  %10 = load i32, ptr %3, align 4, !tbaa !4
  %11 = zext i32 %10 to i64
  %12 = getelementptr inbounds nuw [43 x %struct.opcode_description], ptr @opcode_descriptions, i64 0, i64 %11
  store ptr %12, ptr %2, align 8
  br label %14

13:                                               ; preds = %6, %1
  store ptr @invalid_opcode_description, ptr %2, align 8
  br label %14

14:                                               ; preds = %13, %9
  %15 = load ptr, ptr %2, align 8
  ret ptr %15
}

; Function Attrs: nounwind uwtable
define dso_local i32 @bytecode_operation_length(ptr noundef %0) #0 {
  %2 = alloca ptr, align 8
  %3 = alloca i32, align 4
  store ptr %0, ptr %2, align 8, !tbaa !8
  call void @llvm.lifetime.start.p0(i64 4, ptr %3) #4
  %4 = load ptr, ptr %2, align 8, !tbaa !8
  %5 = load i16, ptr %4, align 2, !tbaa !11
  %6 = zext i16 %5 to i32
  %7 = call ptr @opcode_describe(i32 noundef %6)
  %8 = getelementptr inbounds nuw %struct.opcode_description, ptr %7, i32 0, i32 3
  %9 = load i32, ptr %8, align 4, !tbaa !13
  store i32 %9, ptr %3, align 4, !tbaa !4
  %10 = load ptr, ptr %2, align 8, !tbaa !8
  %11 = load i16, ptr %10, align 2, !tbaa !11
  %12 = zext i16 %11 to i32
  %13 = icmp eq i32 %12, 28
  br i1 %13, label %19, label %14

14:                                               ; preds = %1
  %15 = load ptr, ptr %2, align 8, !tbaa !8
  %16 = load i16, ptr %15, align 2, !tbaa !11
  %17 = zext i16 %16 to i32
  %18 = icmp eq i32 %17, 30
  br i1 %18, label %19, label %27

19:                                               ; preds = %14, %1
  %20 = load ptr, ptr %2, align 8, !tbaa !8
  %21 = getelementptr inbounds i16, ptr %20, i64 1
  %22 = load i16, ptr %21, align 2, !tbaa !11
  %23 = zext i16 %22 to i32
  %24 = mul nsw i32 %23, 2
  %25 = load i32, ptr %3, align 4, !tbaa !4
  %26 = add nsw i32 %25, %24
  store i32 %26, ptr %3, align 4, !tbaa !4
  br label %27

27:                                               ; preds = %19, %14
  %28 = load i32, ptr %3, align 4, !tbaa !4
  call void @llvm.lifetime.end.p0(i64 4, ptr %3) #4
  ret i32 %28
}

; Function Attrs: nounwind uwtable
define internal void @dump_code(i32 noundef %0, ptr noundef %1) #0 {
  %3 = alloca i32, align 4
  %4 = alloca ptr, align 8
  %5 = alloca i32, align 4
  store i32 %0, ptr %3, align 4, !tbaa !4
  store ptr %1, ptr %4, align 8, !tbaa !16
  call void @llvm.lifetime.start.p0(i64 4, ptr %5) #4
  store i32 0, ptr %5, align 4, !tbaa !4
  br label %6

6:                                                ; preds = %12, %2
  %7 = load i32, ptr %5, align 4, !tbaa !4
  %8 = load ptr, ptr %4, align 8, !tbaa !16
  %9 = getelementptr inbounds nuw %struct.bytecode, ptr %8, i32 0, i32 1
  %10 = load i32, ptr %9, align 8, !tbaa !28
  %11 = icmp slt i32 %7, %10
  br i1 %11, label %12, label %32

12:                                               ; preds = %6
  %13 = load i32, ptr %3, align 4, !tbaa !4
  %14 = call i32 (ptr, ...) @printf(ptr noundef @.str.63, i32 noundef %13, ptr noundef @.str.1)
  %15 = load ptr, ptr %4, align 8, !tbaa !16
  %16 = load ptr, ptr %4, align 8, !tbaa !16
  %17 = getelementptr inbounds nuw %struct.bytecode, ptr %16, i32 0, i32 0
  %18 = load ptr, ptr %17, align 8, !tbaa !29
  %19 = load i32, ptr %5, align 4, !tbaa !4
  %20 = sext i32 %19 to i64
  %21 = getelementptr inbounds i16, ptr %18, i64 %20
  call void @dump_operation(ptr noundef %15, ptr noundef %21)
  %22 = call i32 (ptr, ...) @printf(ptr noundef @.str.64)
  %23 = load ptr, ptr %4, align 8, !tbaa !16
  %24 = getelementptr inbounds nuw %struct.bytecode, ptr %23, i32 0, i32 0
  %25 = load ptr, ptr %24, align 8, !tbaa !29
  %26 = load i32, ptr %5, align 4, !tbaa !4
  %27 = sext i32 %26 to i64
  %28 = getelementptr inbounds i16, ptr %25, i64 %27
  %29 = call i32 @bytecode_operation_length(ptr noundef %28)
  %30 = load i32, ptr %5, align 4, !tbaa !4
  %31 = add nsw i32 %30, %29
  store i32 %31, ptr %5, align 4, !tbaa !4
  br label %6, !llvm.loop !30

32:                                               ; preds = %6
  call void @llvm.lifetime.end.p0(i64 4, ptr %5) #4
  ret void
}

; Function Attrs: nounwind uwtable
define dso_local void @dump_disassembly(i32 noundef %0, ptr noundef %1) #0 {
  %3 = alloca i32, align 4
  %4 = alloca ptr, align 8
  %5 = alloca %struct.jv, align 8
  %6 = alloca %struct.jv, align 8
  %7 = alloca %struct.jv, align 8
  %8 = alloca i32, align 4
  %9 = alloca %struct.jv, align 8
  %10 = alloca %struct.jv, align 8
  %11 = alloca i32, align 4
  %12 = alloca ptr, align 8
  %13 = alloca %struct.jv, align 8
  %14 = alloca %struct.jv, align 8
  %15 = alloca %struct.jv, align 8
  store i32 %0, ptr %3, align 4, !tbaa !4
  store ptr %1, ptr %4, align 8, !tbaa !16
  %16 = load ptr, ptr %4, align 8, !tbaa !16
  %17 = getelementptr inbounds nuw %struct.bytecode, ptr %16, i32 0, i32 3
  %18 = load i32, ptr %17, align 8, !tbaa !18
  %19 = icmp sgt i32 %18, 0
  br i1 %19, label %20, label %103

20:                                               ; preds = %2
  %21 = load i32, ptr %3, align 4, !tbaa !4
  %22 = call i32 (ptr, ...) @printf(ptr noundef @.str, i32 noundef %21, ptr noundef @.str.1)
  call void @llvm.lifetime.start.p0(i64 16, ptr %5) #4
  %23 = load ptr, ptr %4, align 8, !tbaa !16
  %24 = getelementptr inbounds nuw %struct.bytecode, ptr %23, i32 0, i32 9
  %25 = getelementptr inbounds nuw { i64, ptr }, ptr %24, i32 0, i32 0
  %26 = load i64, ptr %25, align 8
  %27 = getelementptr inbounds nuw { i64, ptr }, ptr %24, i32 0, i32 1
  %28 = load ptr, ptr %27, align 8
  %29 = call { i64, ptr } @jv_copy(i64 %26, ptr %28)
  %30 = getelementptr inbounds nuw { i64, ptr }, ptr %6, i32 0, i32 0
  %31 = extractvalue { i64, ptr } %29, 0
  store i64 %31, ptr %30, align 8
  %32 = getelementptr inbounds nuw { i64, ptr }, ptr %6, i32 0, i32 1
  %33 = extractvalue { i64, ptr } %29, 1
  store ptr %33, ptr %32, align 8
  %34 = call { i64, ptr } @jv_string(ptr noundef @.str.2)
  %35 = getelementptr inbounds nuw { i64, ptr }, ptr %7, i32 0, i32 0
  %36 = extractvalue { i64, ptr } %34, 0
  store i64 %36, ptr %35, align 8
  %37 = getelementptr inbounds nuw { i64, ptr }, ptr %7, i32 0, i32 1
  %38 = extractvalue { i64, ptr } %34, 1
  store ptr %38, ptr %37, align 8
  %39 = getelementptr inbounds nuw { i64, ptr }, ptr %6, i32 0, i32 0
  %40 = load i64, ptr %39, align 8
  %41 = getelementptr inbounds nuw { i64, ptr }, ptr %6, i32 0, i32 1
  %42 = load ptr, ptr %41, align 8
  %43 = getelementptr inbounds nuw { i64, ptr }, ptr %7, i32 0, i32 0
  %44 = load i64, ptr %43, align 8
  %45 = getelementptr inbounds nuw { i64, ptr }, ptr %7, i32 0, i32 1
  %46 = load ptr, ptr %45, align 8
  %47 = call { i64, ptr } @jv_object_get(i64 %40, ptr %42, i64 %44, ptr %46)
  %48 = getelementptr inbounds nuw { i64, ptr }, ptr %5, i32 0, i32 0
  %49 = extractvalue { i64, ptr } %47, 0
  store i64 %49, ptr %48, align 8
  %50 = getelementptr inbounds nuw { i64, ptr }, ptr %5, i32 0, i32 1
  %51 = extractvalue { i64, ptr } %47, 1
  store ptr %51, ptr %50, align 8
  call void @llvm.lifetime.start.p0(i64 4, ptr %8) #4
  store i32 0, ptr %8, align 4, !tbaa !4
  br label %52

52:                                               ; preds = %94, %20
  %53 = load i32, ptr %8, align 4, !tbaa !4
  %54 = load ptr, ptr %4, align 8, !tbaa !16
  %55 = getelementptr inbounds nuw %struct.bytecode, ptr %54, i32 0, i32 3
  %56 = load i32, ptr %55, align 8, !tbaa !18
  %57 = icmp slt i32 %53, %56
  br i1 %57, label %59, label %58

58:                                               ; preds = %52
  call void @llvm.lifetime.end.p0(i64 4, ptr %8) #4
  br label %97

59:                                               ; preds = %52
  %60 = load i32, ptr %8, align 4, !tbaa !4
  %61 = icmp ne i32 %60, 0
  br i1 %61, label %62, label %64

62:                                               ; preds = %59
  %63 = call i32 (ptr, ...) @printf(ptr noundef @.str.3)
  br label %64

64:                                               ; preds = %62, %59
  call void @llvm.lifetime.start.p0(i64 16, ptr %9) #4
  %65 = getelementptr inbounds nuw { i64, ptr }, ptr %5, i32 0, i32 0
  %66 = load i64, ptr %65, align 8
  %67 = getelementptr inbounds nuw { i64, ptr }, ptr %5, i32 0, i32 1
  %68 = load ptr, ptr %67, align 8
  %69 = call { i64, ptr } @jv_copy(i64 %66, ptr %68)
  %70 = getelementptr inbounds nuw { i64, ptr }, ptr %10, i32 0, i32 0
  %71 = extractvalue { i64, ptr } %69, 0
  store i64 %71, ptr %70, align 8
  %72 = getelementptr inbounds nuw { i64, ptr }, ptr %10, i32 0, i32 1
  %73 = extractvalue { i64, ptr } %69, 1
  store ptr %73, ptr %72, align 8
  %74 = load i32, ptr %8, align 4, !tbaa !4
  %75 = getelementptr inbounds nuw { i64, ptr }, ptr %10, i32 0, i32 0
  %76 = load i64, ptr %75, align 8
  %77 = getelementptr inbounds nuw { i64, ptr }, ptr %10, i32 0, i32 1
  %78 = load ptr, ptr %77, align 8
  %79 = call { i64, ptr } @jv_array_get(i64 %76, ptr %78, i32 noundef %74)
  %80 = getelementptr inbounds nuw { i64, ptr }, ptr %9, i32 0, i32 0
  %81 = extractvalue { i64, ptr } %79, 0
  store i64 %81, ptr %80, align 8
  %82 = getelementptr inbounds nuw { i64, ptr }, ptr %9, i32 0, i32 1
  %83 = extractvalue { i64, ptr } %79, 1
  store ptr %83, ptr %82, align 8
  %84 = getelementptr inbounds nuw { i64, ptr }, ptr %9, i32 0, i32 0
  %85 = load i64, ptr %84, align 8
  %86 = getelementptr inbounds nuw { i64, ptr }, ptr %9, i32 0, i32 1
  %87 = load ptr, ptr %86, align 8
  %88 = call ptr @jv_string_value(i64 %85, ptr %87)
  %89 = call i32 (ptr, ...) @printf(ptr noundef @.str.4, ptr noundef %88)
  %90 = getelementptr inbounds nuw { i64, ptr }, ptr %9, i32 0, i32 0
  %91 = load i64, ptr %90, align 8
  %92 = getelementptr inbounds nuw { i64, ptr }, ptr %9, i32 0, i32 1
  %93 = load ptr, ptr %92, align 8
  call void @jv_free(i64 %91, ptr %93)
  call void @llvm.lifetime.end.p0(i64 16, ptr %9) #4
  br label %94

94:                                               ; preds = %64
  %95 = load i32, ptr %8, align 4, !tbaa !4
  %96 = add nsw i32 %95, 1
  store i32 %96, ptr %8, align 4, !tbaa !4
  br label %52, !llvm.loop !23

97:                                               ; preds = %58
  %98 = getelementptr inbounds nuw { i64, ptr }, ptr %5, i32 0, i32 0
  %99 = load i64, ptr %98, align 8
  %100 = getelementptr inbounds nuw { i64, ptr }, ptr %5, i32 0, i32 1
  %101 = load ptr, ptr %100, align 8
  call void @jv_free(i64 %99, ptr %101)
  %102 = call i32 (ptr, ...) @printf(ptr noundef @.str.5)
  call void @llvm.lifetime.end.p0(i64 16, ptr %5) #4
  br label %103

103:                                              ; preds = %97, %2
  %104 = load i32, ptr %3, align 4, !tbaa !4
  %105 = load ptr, ptr %4, align 8, !tbaa !16
  call void @dump_code(i32 noundef %104, ptr noundef %105)
  call void @llvm.lifetime.start.p0(i64 4, ptr %11) #4
  store i32 0, ptr %11, align 4, !tbaa !4
  br label %106

106:                                              ; preds = %165, %103
  %107 = load i32, ptr %11, align 4, !tbaa !4
  %108 = load ptr, ptr %4, align 8, !tbaa !16
  %109 = getelementptr inbounds nuw %struct.bytecode, ptr %108, i32 0, i32 7
  %110 = load i32, ptr %109, align 8, !tbaa !25
  %111 = icmp slt i32 %107, %110
  br i1 %111, label %113, label %112

112:                                              ; preds = %106
  call void @llvm.lifetime.end.p0(i64 4, ptr %11) #4
  br label %168

113:                                              ; preds = %106
  call void @llvm.lifetime.start.p0(i64 8, ptr %12) #4
  %114 = load ptr, ptr %4, align 8, !tbaa !16
  %115 = getelementptr inbounds nuw %struct.bytecode, ptr %114, i32 0, i32 6
  %116 = load ptr, ptr %115, align 8, !tbaa !26
  %117 = load i32, ptr %11, align 4, !tbaa !4
  %118 = sext i32 %117 to i64
  %119 = getelementptr inbounds ptr, ptr %116, i64 %118
  %120 = load ptr, ptr %119, align 8, !tbaa !16
  store ptr %120, ptr %12, align 8, !tbaa !16
  call void @llvm.lifetime.start.p0(i64 16, ptr %13) #4
  %121 = load ptr, ptr %12, align 8, !tbaa !16
  %122 = getelementptr inbounds nuw %struct.bytecode, ptr %121, i32 0, i32 9
  %123 = getelementptr inbounds nuw { i64, ptr }, ptr %122, i32 0, i32 0
  %124 = load i64, ptr %123, align 8
  %125 = getelementptr inbounds nuw { i64, ptr }, ptr %122, i32 0, i32 1
  %126 = load ptr, ptr %125, align 8
  %127 = call { i64, ptr } @jv_copy(i64 %124, ptr %126)
  %128 = getelementptr inbounds nuw { i64, ptr }, ptr %14, i32 0, i32 0
  %129 = extractvalue { i64, ptr } %127, 0
  store i64 %129, ptr %128, align 8
  %130 = getelementptr inbounds nuw { i64, ptr }, ptr %14, i32 0, i32 1
  %131 = extractvalue { i64, ptr } %127, 1
  store ptr %131, ptr %130, align 8
  %132 = call { i64, ptr } @jv_string(ptr noundef @.str.6)
  %133 = getelementptr inbounds nuw { i64, ptr }, ptr %15, i32 0, i32 0
  %134 = extractvalue { i64, ptr } %132, 0
  store i64 %134, ptr %133, align 8
  %135 = getelementptr inbounds nuw { i64, ptr }, ptr %15, i32 0, i32 1
  %136 = extractvalue { i64, ptr } %132, 1
  store ptr %136, ptr %135, align 8
  %137 = getelementptr inbounds nuw { i64, ptr }, ptr %14, i32 0, i32 0
  %138 = load i64, ptr %137, align 8
  %139 = getelementptr inbounds nuw { i64, ptr }, ptr %14, i32 0, i32 1
  %140 = load ptr, ptr %139, align 8
  %141 = getelementptr inbounds nuw { i64, ptr }, ptr %15, i32 0, i32 0
  %142 = load i64, ptr %141, align 8
  %143 = getelementptr inbounds nuw { i64, ptr }, ptr %15, i32 0, i32 1
  %144 = load ptr, ptr %143, align 8
  %145 = call { i64, ptr } @jv_object_get(i64 %138, ptr %140, i64 %142, ptr %144)
  %146 = getelementptr inbounds nuw { i64, ptr }, ptr %13, i32 0, i32 0
  %147 = extractvalue { i64, ptr } %145, 0
  store i64 %147, ptr %146, align 8
  %148 = getelementptr inbounds nuw { i64, ptr }, ptr %13, i32 0, i32 1
  %149 = extractvalue { i64, ptr } %145, 1
  store ptr %149, ptr %148, align 8
  %150 = load i32, ptr %3, align 4, !tbaa !4
  %151 = getelementptr inbounds nuw { i64, ptr }, ptr %13, i32 0, i32 0
  %152 = load i64, ptr %151, align 8
  %153 = getelementptr inbounds nuw { i64, ptr }, ptr %13, i32 0, i32 1
  %154 = load ptr, ptr %153, align 8
  %155 = call ptr @jv_string_value(i64 %152, ptr %154)
  %156 = load i32, ptr %11, align 4, !tbaa !4
  %157 = call i32 (ptr, ...) @printf(ptr noundef @.str.7, i32 noundef %150, ptr noundef @.str.1, ptr noundef %155, i32 noundef %156)
  %158 = getelementptr inbounds nuw { i64, ptr }, ptr %13, i32 0, i32 0
  %159 = load i64, ptr %158, align 8
  %160 = getelementptr inbounds nuw { i64, ptr }, ptr %13, i32 0, i32 1
  %161 = load ptr, ptr %160, align 8
  call void @jv_free(i64 %159, ptr %161)
  %162 = load i32, ptr %3, align 4, !tbaa !4
  %163 = add nsw i32 %162, 2
  %164 = load ptr, ptr %12, align 8, !tbaa !16
  call void @dump_disassembly(i32 noundef %163, ptr noundef %164)
  call void @llvm.lifetime.end.p0(i64 16, ptr %13) #4
  call void @llvm.lifetime.end.p0(i64 8, ptr %12) #4
  br label %165

165:                                              ; preds = %113
  %166 = load i32, ptr %11, align 4, !tbaa !4
  %167 = add nsw i32 %166, 1
  store i32 %167, ptr %11, align 4, !tbaa !4
  br label %106, !llvm.loop !27

168:                                              ; preds = %112
  ret void
}