; Function Attrs: nounwind uwtable
define dso_local void @dump_disassembly(i32 noundef %0, ptr noundef readonly captures(none) %1) local_unnamed_addr #2 {
  %3 = getelementptr inbounds nuw i8, ptr %1, i64 16
  %4 = load i32, ptr %3, align 8, !tbaa !13
  %5 = icmp sgt i32 %4, 0
  br i1 %5, label %6, label %37

6:                                                ; preds = %2
  %7 = tail call i32 (ptr, ...) @printf(ptr noundef nonnull dereferenceable(1) @.str, i32 noundef %0, ptr noundef nonnull @.str.1)
  %8 = getelementptr inbounds nuw i8, ptr %1, i64 72
  %9 = load i64, ptr %8, align 8
  %10 = getelementptr inbounds nuw i8, ptr %1, i64 80
  %11 = load ptr, ptr %10, align 8
  %12 = tail call { i64, ptr } @jv_copy(i64 %9, ptr %11) #6
  %13 = extractvalue { i64, ptr } %12, 0
  %14 = extractvalue { i64, ptr } %12, 1
  %15 = tail call { i64, ptr } @jv_string(ptr noundef nonnull @.str.2) #6
  %16 = extractvalue { i64, ptr } %15, 0
  %17 = extractvalue { i64, ptr } %15, 1
  %18 = tail call { i64, ptr } @jv_object_get(i64 %13, ptr %14, i64 %16, ptr %17) #6
  %19 = extractvalue { i64, ptr } %18, 0
  %20 = extractvalue { i64, ptr } %18, 1
  %21 = load i32, ptr %3, align 8, !tbaa !13
  %22 = icmp sgt i32 %21, 0
  br i1 %22, label %.lr.ph, label %._crit_edge

._crit_edge:                                      ; preds = %25, %6
  tail call void @jv_free(i64 %19, ptr %20) #6
  %puts = tail call i32 @puts(ptr nonnull dereferenceable(1) @str)
  br label %37

.lr.ph:                                           ; preds = %6, %25
  %.039 = phi i32 [ %34, %25 ], [ 0, %6 ]
  %.not = icmp eq i32 %.039, 0
  br i1 %.not, label %25, label %23

23:                                               ; preds = %.lr.ph
  %24 = tail call i32 (ptr, ...) @printf(ptr noundef nonnull dereferenceable(1) @.str.3)
  br label %25

25:                                               ; preds = %23, %.lr.ph
  %26 = tail call { i64, ptr } @jv_copy(i64 %19, ptr %20) #6
  %27 = extractvalue { i64, ptr } %26, 0
  %28 = extractvalue { i64, ptr } %26, 1
  %29 = tail call { i64, ptr } @jv_array_get(i64 %27, ptr %28, i32 noundef %.039) #6
  %30 = extractvalue { i64, ptr } %29, 0
  %31 = extractvalue { i64, ptr } %29, 1
  %32 = tail call ptr @jv_string_value(i64 %30, ptr %31) #6
  %33 = tail call i32 (ptr, ...) @printf(ptr noundef nonnull dereferenceable(1) @.str.4, ptr noundef %32)
  tail call void @jv_free(i64 %30, ptr %31) #6
  %34 = add nuw nsw i32 %.039, 1
  %35 = load i32, ptr %3, align 8, !tbaa !13
  %36 = icmp slt i32 %34, %35
  br i1 %36, label %.lr.ph, label %._crit_edge, !llvm.loop !20

37:                                               ; preds = %._crit_edge, %2
  %38 = getelementptr inbounds nuw i8, ptr %1, i64 8
  %39 = load i32, ptr %38, align 8, !tbaa !22
  %40 = icmp sgt i32 %39, 0
  br i1 %40, label %.lr.ph.i, label %dump_code.exit

.lr.ph.i:                                         ; preds = %37, %bytecode_operation_length.exit.i
  %.08.i = phi i32 [ %58, %bytecode_operation_length.exit.i ], [ 0, %37 ]
  %41 = tail call i32 (ptr, ...) @printf(ptr noundef nonnull dereferenceable(1) @.str.63, i32 noundef %0, ptr noundef nonnull @.str.1)
  %42 = load ptr, ptr %1, align 8, !tbaa !23
  %43 = sext i32 %.08.i to i64
  %44 = getelementptr inbounds i16, ptr %42, i64 %43
  tail call void @dump_operation(ptr noundef nonnull readonly %1, ptr noundef %44)
  %putchar.i = tail call i32 @putchar(i32 10)
  %45 = load ptr, ptr %1, align 8, !tbaa !23
  %46 = getelementptr inbounds i16, ptr %45, i64 %43
  %47 = load i16, ptr %46, align 2, !tbaa !4
  %or.cond.i.i.i = icmp ult i16 %47, 43
  %48 = zext nneg i16 %47 to i64
  %49 = getelementptr inbounds nuw [43 x %struct.opcode_description], ptr @opcode_descriptions, i64 0, i64 %48
  %.0.i.i.i = select i1 %or.cond.i.i.i, ptr %49, ptr @invalid_opcode_description
  %50 = getelementptr inbounds nuw i8, ptr %.0.i.i.i, i64 20
  %51 = load i32, ptr %50, align 4, !tbaa !8
  switch i16 %47, label %bytecode_operation_length.exit.i [
    i16 28, label %52
    i16 30, label %52
  ]

52:                                               ; preds = %.lr.ph.i, %.lr.ph.i
  %53 = getelementptr inbounds nuw i8, ptr %46, i64 2
  %54 = load i16, ptr %53, align 2, !tbaa !4
  %55 = zext i16 %54 to i32
  %56 = shl nuw nsw i32 %55, 1
  %57 = add nsw i32 %56, %51
  br label %bytecode_operation_length.exit.i

bytecode_operation_length.exit.i:                 ; preds = %52, %.lr.ph.i
  %.0.i.i = phi i32 [ %57, %52 ], [ %51, %.lr.ph.i ]
  %58 = add nsw i32 %.0.i.i, %.08.i
  %59 = load i32, ptr %38, align 8, !tbaa !22
  %60 = icmp slt i32 %58, %59
  br i1 %60, label %.lr.ph.i, label %dump_code.exit, !llvm.loop !24

dump_code.exit:                                   ; preds = %bytecode_operation_length.exit.i, %37
  %61 = getelementptr inbounds nuw i8, ptr %1, i64 56
  %62 = load i32, ptr %61, align 8, !tbaa !25
  %63 = icmp sgt i32 %62, 0
  br i1 %63, label %.lr.ph41, label %._crit_edge42

.lr.ph41:                                         ; preds = %dump_code.exit
  %64 = getelementptr inbounds nuw i8, ptr %1, i64 48
  %65 = add nsw i32 %0, 2
  br label %66

._crit_edge42:                                    ; preds = %66, %dump_code.exit
  ret void

66:                                               ; preds = %.lr.ph41, %66
  %indvars.iv = phi i64 [ 0, %.lr.ph41 ], [ %indvars.iv.next, %66 ]
  %67 = load ptr, ptr %64, align 8, !tbaa !26
  %68 = getelementptr inbounds nuw ptr, ptr %67, i64 %indvars.iv
  %69 = load ptr, ptr %68, align 8, !tbaa !27
  %70 = getelementptr inbounds nuw i8, ptr %69, i64 72
  %71 = load i64, ptr %70, align 8
  %72 = getelementptr inbounds nuw i8, ptr %69, i64 80
  %73 = load ptr, ptr %72, align 8
  %74 = tail call { i64, ptr } @jv_copy(i64 %71, ptr %73) #6
  %75 = extractvalue { i64, ptr } %74, 0
  %76 = extractvalue { i64, ptr } %74, 1
  %77 = tail call { i64, ptr } @jv_string(ptr noundef nonnull @.str.6) #6
  %78 = extractvalue { i64, ptr } %77, 0
  %79 = extractvalue { i64, ptr } %77, 1
  %80 = tail call { i64, ptr } @jv_object_get(i64 %75, ptr %76, i64 %78, ptr %79) #6
  %81 = extractvalue { i64, ptr } %80, 0
  %82 = extractvalue { i64, ptr } %80, 1
  %83 = tail call ptr @jv_string_value(i64 %81, ptr %82) #6
  %84 = trunc nuw nsw i64 %indvars.iv to i32
  %85 = tail call i32 (ptr, ...) @printf(ptr noundef nonnull dereferenceable(1) @.str.7, i32 noundef %0, ptr noundef nonnull @.str.1, ptr noundef %83, i32 noundef %84)
  tail call void @jv_free(i64 %81, ptr %82) #6
  tail call void @dump_disassembly(i32 noundef %65, ptr noundef %69)
  %indvars.iv.next = add nuw nsw i64 %indvars.iv, 1
  %86 = load i32, ptr %61, align 8, !tbaa !25
  %87 = sext i32 %86 to i64
  %88 = icmp slt i64 %indvars.iv.next, %87
  br i1 %88, label %66, label %._crit_edge42, !llvm.loop !28
}